; ModuleID = 'source-C-CXX/51/2931.cpp'
source_filename = "source-C-CXX/51/2931.cpp"
target datalayout = "e-m:e-p270:32:32-p271:32:32-p272:64:64-i64:64-f80:128-n8:16:32:64-S128"
target triple = "x86_64-pc-linux-gnu"

%"class.std::ios_base::Init" = type { i8 }
%"class.std::basic_istream" = type { i32 (...)**, i64, %"class.std::basic_ios" }
%"class.std::basic_ios" = type { %"class.std::ios_base", %"class.std::basic_ostream"*, i8, i8, %"class.std::basic_streambuf"*, %"class.std::ctype"*, %"class.std::num_put"*, %"class.std::num_get"* }
%"class.std::ios_base" = type { i32 (...)**, i64, i64, i32, i32, i32, %"struct.std::ios_base::_Callback_list"*, %"struct.std::ios_base::_Words", [8 x %"struct.std::ios_base::_Words"], i32, %"struct.std::ios_base::_Words"*, %"class.std::locale" }
%"struct.std::ios_base::_Callback_list" = type { %"struct.std::ios_base::_Callback_list"*, void (i32, %"class.std::ios_base"*, i32)*, i32, i32 }
%"struct.std::ios_base::_Words" = type { i8*, i64 }
%"class.std::locale" = type { %"class.std::locale::_Impl"* }
%"class.std::locale::_Impl" = type { i32, %"class.std::locale::facet"**, i64, %"class.std::locale::facet"**, i8** }
%"class.std::locale::facet" = type <{ i32 (...)**, i32, [4 x i8] }>
%"class.std::basic_ostream" = type { i32 (...)**, %"class.std::basic_ios" }
%"class.std::basic_streambuf" = type { i32 (...)**, i8*, i8*, i8*, i8*, i8*, i8*, %"class.std::locale" }
%"class.std::ctype" = type <{ %"class.std::locale::facet.base", [4 x i8], %struct.__locale_struct*, i8, [7 x i8], i32*, i32*, i16*, i8, [256 x i8], [256 x i8], i8, [6 x i8] }>
%"class.std::locale::facet.base" = type <{ i32 (...)**, i32 }>
%struct.__locale_struct = type { [13 x %struct.__locale_data*], i16*, i32*, i32*, [13 x i8*] }
%struct.__locale_data = type opaque
%"class.std::num_put" = type { %"class.std::locale::facet.base", [4 x i8] }
%"class.std::num_get" = type { %"class.std::locale::facet.base", [4 x i8] }

@_ZStL8__ioinit = internal global %"class.std::ios_base::Init" zeroinitializer, align 1
@__dso_handle = external hidden global i8
@_ZSt3cin = external global %"class.std::basic_istream", align 8
@_ZSt4cout = external global %"class.std::basic_ostream", align 8
@.str = private unnamed_addr constant [2 x i8] c" \00", align 1
@llvm.global_ctors = appending global [1 x { i32, void ()*, i8* }] [{ i32, void ()*, i8* } { i32 65535, void ()* @_GLOBAL__sub_I_2931.cpp, i8* null }]

declare void @_ZNSt8ios_base4InitC1Ev(%"class.std::ios_base::Init"* nonnull align 1 dereferenceable(1)) unnamed_addr #0

; Function Attrs: nounwind
declare void @_ZNSt8ios_base4InitD1Ev(%"class.std::ios_base::Init"* nonnull align 1 dereferenceable(1)) unnamed_addr #1

; Function Attrs: nofree nounwind
declare i32 @__cxa_atexit(void (i8*)*, i8*, i8*) local_unnamed_addr #2

; Function Attrs: mustprogress norecurse sspstrong uwtable
define dso_local i32 @main() local_unnamed_addr #3 {
  %1 = alloca i32, align 4
  %2 = alloca i32, align 4
  %3 = alloca [200 x i32], align 16
  %4 = ptrtoint [200 x i32]* %3 to i64
  %5 = bitcast i32* %1 to i8*
  call void @llvm.lifetime.start.p0i8(i64 4, i8* nonnull %5) #7
  %6 = bitcast i32* %2 to i8*
  call void @llvm.lifetime.start.p0i8(i64 4, i8* nonnull %6) #7
  %7 = bitcast [200 x i32]* %3 to i8*
  call void @llvm.lifetime.start.p0i8(i64 800, i8* nonnull %7) #7
  %8 = call nonnull align 8 dereferenceable(16) %"class.std::basic_istream"* @_ZNSirsERi(%"class.std::basic_istream"* nonnull align 8 dereferenceable(16) @_ZSt3cin, i32* nonnull align 4 dereferenceable(4) %1)
  %9 = call nonnull align 8 dereferenceable(16) %"class.std::basic_istream"* @_ZNSirsERi(%"class.std::basic_istream"* nonnull align 8 dereferenceable(16) %8, i32* nonnull align 4 dereferenceable(4) %2)
  %10 = load i32, i32* %1, align 4, !tbaa !5
  %11 = icmp sgt i32 %10, 0
  br i1 %11, label %12, label %20

12:                                               ; preds = %0, %12
  %13 = phi i64 [ %16, %12 ], [ 0, %0 ]
  %14 = getelementptr inbounds [200 x i32], [200 x i32]* %3, i64 0, i64 %13
  %15 = call nonnull align 8 dereferenceable(16) %"class.std::basic_istream"* @_ZNSirsERi(%"class.std::basic_istream"* nonnull align 8 dereferenceable(16) @_ZSt3cin, i32* nonnull align 4 dereferenceable(4) %14)
  %16 = add nuw nsw i64 %13, 1
  %17 = load i32, i32* %1, align 4, !tbaa !5
  %18 = sext i32 %17 to i64
  %19 = icmp slt i64 %16, %18
  br i1 %19, label %12, label %20, !llvm.loop !9

20:                                               ; preds = %12, %0
  %21 = phi i32 [ %10, %0 ], [ %17, %12 ]
  %22 = load i32, i32* %2, align 4, !tbaa !5
  %23 = add i32 %21, -1
  %24 = sext i32 %23 to i64
  %25 = getelementptr inbounds [200 x i32], [200 x i32]* %3, i64 0, i64 %24
  %26 = getelementptr inbounds [200 x i32], [200 x i32]* %3, i64 0, i64 0
  %27 = icmp sgt i32 %22, 0
  br i1 %27, label %30, label %28

28:                                               ; preds = %20
  %29 = load i32, i32* %26, align 16, !tbaa !5
  br label %203

30:                                               ; preds = %20
  %31 = icmp sgt i32 %21, 1
  br i1 %31, label %47, label %32

32:                                               ; preds = %30
  %33 = add i32 %22, -1
  %34 = and i32 %22, 7
  %35 = icmp eq i32 %34, 0
  br i1 %35, label %43, label %36

36:                                               ; preds = %32, %36
  %37 = phi i32 [ %40, %36 ], [ %22, %32 ]
  %38 = phi i32 [ %41, %36 ], [ %34, %32 ]
  %39 = load i32, i32* %25, align 4, !tbaa !5
  store i32 %39, i32* %26, align 16, !tbaa !5
  %40 = add nsw i32 %37, -1
  %41 = add i32 %38, -1
  %42 = icmp eq i32 %41, 0
  br i1 %42, label %43, label %36, !llvm.loop !11

43:                                               ; preds = %36, %32
  %44 = phi i32 [ %22, %32 ], [ %40, %36 ]
  %45 = phi i32 [ undef, %32 ], [ %39, %36 ]
  %46 = icmp ult i32 %33, 7
  br i1 %46, label %201, label %189

47:                                               ; preds = %30
  %48 = zext i32 %23 to i64
  %49 = call i64 @llvm.smin.i64(i64 %48, i64 1)
  %50 = sub nsw i64 %48, %49
  %51 = add i32 %21, -2
  %52 = shl nuw nsw i64 %48, 2
  %53 = add i64 %52, %4
  %54 = zext i32 %51 to i64
  %55 = shl nuw nsw i64 %54, 2
  %56 = add i64 %55, %4
  %57 = call i64 @llvm.smin.i64(i64 %48, i64 1)
  %58 = getelementptr [200 x i32], [200 x i32]* %3, i64 0, i64 %57
  %59 = add nuw nsw i64 %48, 1
  %60 = getelementptr [200 x i32], [200 x i32]* %3, i64 0, i64 %59
  %61 = add i32 %21, -2
  %62 = zext i32 %61 to i64
  %63 = add nuw nsw i64 %57, %62
  %64 = sub nsw i64 %63, %48
  %65 = getelementptr [200 x i32], [200 x i32]* %3, i64 0, i64 %64
  %66 = add nuw nsw i64 %62, 1
  %67 = getelementptr [200 x i32], [200 x i32]* %3, i64 0, i64 %66
  %68 = add nuw nsw i64 %48, 1
  %69 = call i64 @llvm.smin.i64(i64 %48, i64 1)
  %70 = sub nuw nsw i64 %68, %69
  %71 = add nuw nsw i64 %48, 1
  %72 = sub nuw nsw i64 %71, %69
  %73 = add nsw i64 %72, -8
  %74 = lshr i64 %73, 3
  %75 = add nuw nsw i64 %74, 1
  %76 = icmp ult i64 %70, 8
  %77 = trunc i64 %50 to i32
  %78 = icmp ult i32 %51, %77
  %79 = icmp ugt i64 %50, 4294967295
  %80 = or i1 %78, %79
  %81 = call { i64, i1 } @llvm.umul.with.overflow.i64(i64 %50, i64 4)
  %82 = extractvalue { i64, i1 } %81, 0
  %83 = extractvalue { i64, i1 } %81, 1
  %84 = icmp ugt i64 %82, %53
  %85 = or i1 %84, %83
  %86 = or i1 %80, %85
  %87 = call { i64, i1 } @llvm.umul.with.overflow.i64(i64 %50, i64 4)
  %88 = extractvalue { i64, i1 } %87, 0
  %89 = extractvalue { i64, i1 } %87, 1
  %90 = icmp ugt i64 %88, %56
  %91 = or i1 %90, %89
  %92 = or i1 %86, %91
  %93 = icmp ult i32* %58, %67
  %94 = icmp ult i32* %65, %60
  %95 = and i1 %93, %94
  %96 = and i64 %70, -8
  %97 = sub nsw i64 %48, %96
  %98 = trunc i64 %96 to i32
  %99 = sub i32 %23, %98
  %100 = and i64 %75, 1
  %101 = icmp ult i64 %73, 8
  %102 = and i64 %75, 4611686018427387902
  %103 = icmp eq i64 %100, 0
  %104 = icmp eq i64 %70, %96
  br label %105

105:                                              ; preds = %47, %186
  %106 = phi i32 [ %187, %186 ], [ %22, %47 ]
  %107 = load i32, i32* %25, align 4, !tbaa !5
  %108 = select i1 %76, i1 true, i1 %92
  %109 = select i1 %108, i1 true, i1 %95
  br i1 %109, label %173, label %110

110:                                              ; preds = %105
  br i1 %101, label %152, label %111

111:                                              ; preds = %110, %111
  %112 = phi i64 [ %149, %111 ], [ 0, %110 ]
  %113 = phi i64 [ %150, %111 ], [ %102, %110 ]
  %114 = sub i64 %48, %112
  %115 = trunc i64 %112 to i32
  %116 = xor i32 %115, -1
  %117 = add i32 %23, %116
  %118 = zext i32 %117 to i64
  %119 = getelementptr inbounds [200 x i32], [200 x i32]* %3, i64 0, i64 %118
  %120 = getelementptr inbounds i32, i32* %119, i64 -3
  %121 = bitcast i32* %120 to <4 x i32>*
  %122 = load <4 x i32>, <4 x i32>* %121, align 4, !tbaa !5, !alias.scope !13
  %123 = getelementptr inbounds i32, i32* %119, i64 -7
  %124 = bitcast i32* %123 to <4 x i32>*
  %125 = load <4 x i32>, <4 x i32>* %124, align 4, !tbaa !5, !alias.scope !13
  %126 = getelementptr inbounds [200 x i32], [200 x i32]* %3, i64 0, i64 %114
  %127 = getelementptr inbounds i32, i32* %126, i64 -3
  %128 = bitcast i32* %127 to <4 x i32>*
  store <4 x i32> %122, <4 x i32>* %128, align 4, !tbaa !5, !alias.scope !16, !noalias !13
  %129 = getelementptr inbounds i32, i32* %126, i64 -7
  %130 = bitcast i32* %129 to <4 x i32>*
  store <4 x i32> %125, <4 x i32>* %130, align 4, !tbaa !5, !alias.scope !16, !noalias !13
  %131 = or i64 %112, 8
  %132 = sub i64 %48, %131
  %133 = trunc i64 %131 to i32
  %134 = xor i32 %133, -1
  %135 = add i32 %23, %134
  %136 = zext i32 %135 to i64
  %137 = getelementptr inbounds [200 x i32], [200 x i32]* %3, i64 0, i64 %136
  %138 = getelementptr inbounds i32, i32* %137, i64 -3
  %139 = bitcast i32* %138 to <4 x i32>*
  %140 = load <4 x i32>, <4 x i32>* %139, align 4, !tbaa !5, !alias.scope !13
  %141 = getelementptr inbounds i32, i32* %137, i64 -7
  %142 = bitcast i32* %141 to <4 x i32>*
  %143 = load <4 x i32>, <4 x i32>* %142, align 4, !tbaa !5, !alias.scope !13
  %144 = getelementptr inbounds [200 x i32], [200 x i32]* %3, i64 0, i64 %132
  %145 = getelementptr inbounds i32, i32* %144, i64 -3
  %146 = bitcast i32* %145 to <4 x i32>*
  store <4 x i32> %140, <4 x i32>* %146, align 4, !tbaa !5, !alias.scope !16, !noalias !13
  %147 = getelementptr inbounds i32, i32* %144, i64 -7
  %148 = bitcast i32* %147 to <4 x i32>*
  store <4 x i32> %143, <4 x i32>* %148, align 4, !tbaa !5, !alias.scope !16, !noalias !13
  %149 = add nuw i64 %112, 16
  %150 = add i64 %113, -2
  %151 = icmp eq i64 %150, 0
  br i1 %151, label %152, label %111, !llvm.loop !18

152:                                              ; preds = %111, %110
  %153 = phi i64 [ 0, %110 ], [ %149, %111 ]
  br i1 %103, label %172, label %154

154:                                              ; preds = %152
  %155 = sub i64 %48, %153
  %156 = trunc i64 %153 to i32
  %157 = xor i32 %156, -1
  %158 = add i32 %23, %157
  %159 = zext i32 %158 to i64
  %160 = getelementptr inbounds [200 x i32], [200 x i32]* %3, i64 0, i64 %159
  %161 = getelementptr inbounds i32, i32* %160, i64 -3
  %162 = bitcast i32* %161 to <4 x i32>*
  %163 = load <4 x i32>, <4 x i32>* %162, align 4, !tbaa !5, !alias.scope !13
  %164 = getelementptr inbounds i32, i32* %160, i64 -7
  %165 = bitcast i32* %164 to <4 x i32>*
  %166 = load <4 x i32>, <4 x i32>* %165, align 4, !tbaa !5, !alias.scope !13
  %167 = getelementptr inbounds [200 x i32], [200 x i32]* %3, i64 0, i64 %155
  %168 = getelementptr inbounds i32, i32* %167, i64 -3
  %169 = bitcast i32* %168 to <4 x i32>*
  store <4 x i32> %163, <4 x i32>* %169, align 4, !tbaa !5, !alias.scope !16, !noalias !13
  %170 = getelementptr inbounds i32, i32* %167, i64 -7
  %171 = bitcast i32* %170 to <4 x i32>*
  store <4 x i32> %166, <4 x i32>* %171, align 4, !tbaa !5, !alias.scope !16, !noalias !13
  br label %172

172:                                              ; preds = %152, %154
  br i1 %104, label %186, label %173

173:                                              ; preds = %105, %172
  %174 = phi i64 [ %48, %105 ], [ %97, %172 ]
  %175 = phi i32 [ %23, %105 ], [ %99, %172 ]
  br label %176

176:                                              ; preds = %173, %176
  %177 = phi i64 [ %185, %176 ], [ %174, %173 ]
  %178 = phi i32 [ %179, %176 ], [ %175, %173 ]
  %179 = add nsw i32 %178, -1
  %180 = zext i32 %179 to i64
  %181 = getelementptr inbounds [200 x i32], [200 x i32]* %3, i64 0, i64 %180
  %182 = load i32, i32* %181, align 4, !tbaa !5
  %183 = getelementptr inbounds [200 x i32], [200 x i32]* %3, i64 0, i64 %177
  store i32 %182, i32* %183, align 4, !tbaa !5
  %184 = icmp sgt i64 %177, 1
  %185 = add nsw i64 %177, -1
  br i1 %184, label %176, label %186, !llvm.loop !20

186:                                              ; preds = %176, %172
  store i32 %107, i32* %26, align 16, !tbaa !5
  %187 = add nsw i32 %106, -1
  %188 = icmp sgt i32 %106, 1
  br i1 %188, label %105, label %201, !llvm.loop !21

189:                                              ; preds = %43, %189
  %190 = phi i32 [ %199, %189 ], [ %44, %43 ]
  %191 = load i32, i32* %25, align 4, !tbaa !5
  store i32 %191, i32* %26, align 16, !tbaa !5
  %192 = load i32, i32* %25, align 4, !tbaa !5
  store i32 %192, i32* %26, align 16, !tbaa !5
  %193 = load i32, i32* %25, align 4, !tbaa !5
  store i32 %193, i32* %26, align 16, !tbaa !5
  %194 = load i32, i32* %25, align 4, !tbaa !5
  store i32 %194, i32* %26, align 16, !tbaa !5
  %195 = load i32, i32* %25, align 4, !tbaa !5
  store i32 %195, i32* %26, align 16, !tbaa !5
  %196 = load i32, i32* %25, align 4, !tbaa !5
  store i32 %196, i32* %26, align 16, !tbaa !5
  %197 = load i32, i32* %25, align 4, !tbaa !5
  store i32 %197, i32* %26, align 16, !tbaa !5
  %198 = load i32, i32* %25, align 4, !tbaa !5
  store i32 %198, i32* %26, align 16, !tbaa !5
  %199 = add nsw i32 %190, -8
  %200 = icmp sgt i32 %190, 8
  br i1 %200, label %189, label %201, !llvm.loop !21

201:                                              ; preds = %43, %189, %186
  %202 = phi i32 [ %107, %186 ], [ %45, %43 ], [ %198, %189 ]
  store i32 0, i32* %2, align 4, !tbaa !5
  br label %203

203:                                              ; preds = %28, %201
  %204 = phi i32 [ %29, %28 ], [ %202, %201 ]
  %205 = call nonnull align 8 dereferenceable(8) %"class.std::basic_ostream"* @_ZNSolsEi(%"class.std::basic_ostream"* nonnull align 8 dereferenceable(8) @_ZSt4cout, i32 %204)
  %206 = load i32, i32* %1, align 4, !tbaa !5
  %207 = icmp sgt i32 %206, 1
  br i1 %207, label %208, label %218

208:                                              ; preds = %203, %208
  %209 = phi i64 [ %214, %208 ], [ 1, %203 ]
  %210 = call nonnull align 8 dereferenceable(8) %"class.std::basic_ostream"* @_ZSt16__ostream_insertIcSt11char_traitsIcEERSt13basic_ostreamIT_T0_ES6_PKS3_l(%"class.std::basic_ostream"* nonnull align 8 dereferenceable(8) @_ZSt4cout, i8* nonnull getelementptr inbounds ([2 x i8], [2 x i8]* @.str, i64 0, i64 0), i64 1)
  %211 = getelementptr inbounds [200 x i32], [200 x i32]* %3, i64 0, i64 %209
  %212 = load i32, i32* %211, align 4, !tbaa !5
  %213 = call nonnull align 8 dereferenceable(8) %"class.std::basic_ostream"* @_ZNSolsEi(%"class.std::basic_ostream"* nonnull align 8 dereferenceable(8) @_ZSt4cout, i32 %212)
  %214 = add nuw nsw i64 %209, 1
  %215 = load i32, i32* %1, align 4, !tbaa !5
  %216 = sext i32 %215 to i64
  %217 = icmp slt i64 %214, %216
  br i1 %217, label %208, label %218, !llvm.loop !22

218:                                              ; preds = %208, %203
  call void @llvm.lifetime.end.p0i8(i64 800, i8* nonnull %7) #7
  call void @llvm.lifetime.end.p0i8(i64 4, i8* nonnull %6) #7
  call void @llvm.lifetime.end.p0i8(i64 4, i8* nonnull %5) #7
  ret i32 0
}

; Function Attrs: argmemonly mustprogress nofree nosync nounwind willreturn
declare void @llvm.lifetime.start.p0i8(i64 immarg, i8* nocapture) #4

declare nonnull align 8 dereferenceable(16) %"class.std::basic_istream"* @_ZNSirsERi(%"class.std::basic_istream"* nonnull align 8 dereferenceable(16), i32* nonnull align 4 dereferenceable(4)) local_unnamed_addr #0

declare nonnull align 8 dereferenceable(8) %"class.std::basic_ostream"* @_ZNSolsEi(%"class.std::basic_ostream"* nonnull align 8 dereferenceable(8), i32) local_unnamed_addr #0

; Function Attrs: argmemonly mustprogress nofree nosync nounwind willreturn
declare void @llvm.lifetime.end.p0i8(i64 immarg, i8* nocapture) #4

declare nonnull align 8 dereferenceable(8) %"class.std::basic_ostream"* @_ZSt16__ostream_insertIcSt11char_traitsIcEERSt13basic_ostreamIT_T0_ES6_PKS3_l(%"class.std::basic_ostream"* nonnull align 8 dereferenceable(8), i8*, i64) local_unnamed_addr #0

; Function Attrs: sspstrong uwtable
define internal void @_GLOBAL__sub_I_2931.cpp() #5 section ".text.startup" {
  tail call void @_ZNSt8ios_base4InitC1Ev(%"class.std::ios_base::Init"* nonnull align 1 dereferenceable(1) @_ZStL8__ioinit)
  %1 = tail call i32 @__cxa_atexit(void (i8*)* bitcast (void (%"class.std::ios_base::Init"*)* @_ZNSt8ios_base4InitD1Ev to void (i8*)*), i8* getelementptr inbounds (%"class.std::ios_base::Init", %"class.std::ios_base::Init"* @_ZStL8__ioinit, i64 0, i32 0), i8* nonnull @__dso_handle) #7
  ret void
}

; Function Attrs: nofree nosync nounwind readnone speculatable willreturn
declare i64 @llvm.smin.i64(i64, i64) #6

; Function Attrs: nofree nosync nounwind readnone speculatable willreturn
declare { i64, i1 } @llvm.umul.with.overflow.i64(i64, i64) #6


!llvm.module.flags = !{!0, !1, !2, !3}
!llvm.ident = !{!4}

!0 = !{i32 1, !"wchar_size", i32 4}
!1 = !{i32 7, !"PIC Level", i32 2}
!2 = !{i32 7, !"PIE Level", i32 2}
!3 = !{i32 7, !"uwtable", i32 1}
!4 = !{!"clang version 13.0.0"}
!5 = !{!6, !6, i64 0}
!6 = !{!"int", !7, i64 0}
!7 = !{!"omnipotent char", !8, i64 0}
!8 = !{!"Simple C++ TBAA"}
!9 = distinct !{!9, !10}
!10 = !{!"llvm.loop.mustprogress"}
!11 = distinct !{!11, !12}
!12 = !{!"llvm.loop.unroll.disable"}
!13 = !{!14}
!14 = distinct !{!14, !15}
!15 = distinct !{!15, !"LVerDomain"}
!16 = !{!17}
!17 = distinct !{!17, !15}
!18 = distinct !{!18, !10, !19}
!19 = !{!"llvm.loop.isvectorized", i32 1}
!20 = distinct !{!20, !10, !19}
!21 = distinct !{!21, !10}
!22 = distinct !{!22, !10}
